target datalayout = "e-m:e-p270:32:32-p271:32:32-p272:64:64-i64:64-i128:128-f80:128-n8:16:32:64-S128"
target triple = "x86_64-pc-linux-gnu"

%struct.strbuf = type { i64, i64, ptr }
%struct.object_id = type { [32 x i8], i32 }
%struct.name_entry = type { %struct.object_id, ptr, i32, i32 }
%struct.merge_list = type { ptr, ptr, i8, i32, ptr, ptr }

@the_repository = external global ptr, align 8
@__const.traverse_path.buf = private unnamed_addr constant %struct.strbuf { i64 0, i64 0, ptr @strbuf_slopbuf }, align 8
@merge_result_end = internal global ptr @merge_result, align 8

; Function Attrs: nounwind uwtable
define internal void @add_merge_entry(ptr noundef %0) #0 {
  %2 = alloca ptr, align 8
  store ptr %0, ptr %2, align 8, !tbaa !109
  %3 = load ptr, ptr %2, align 8, !tbaa !109
  %4 = load ptr, ptr @merge_result_end, align 8, !tbaa !129
  store ptr %3, ptr %4, align 8, !tbaa !109
  %5 = load ptr, ptr %2, align 8, !tbaa !109
  %6 = getelementptr inbounds nuw %struct.merge_list, ptr %5, i32 0, i32 0
  store ptr %6, ptr @merge_result_end, align 8, !tbaa !129
  ret void
}

; Function Attrs: nounwind uwtable
define internal ptr @create_entry(i32 noundef %0, i32 noundef %1, ptr noundef %2, ptr noundef %3) #0 {
  %5 = alloca i32, align 4
  %6 = alloca i32, align 4
  %7 = alloca ptr, align 8
  %8 = alloca ptr, align 8
  %9 = alloca ptr, align 8
  store i32 %0, ptr %5, align 4, !tbaa !4
  store i32 %1, ptr %6, align 4, !tbaa !4
  store ptr %2, ptr %7, align 8, !tbaa !121
  store ptr %3, ptr %8, align 8, !tbaa !11
  call void @llvm.lifetime.start.p0(i64 8, ptr %9) #10
  %10 = call ptr @xcalloc(i64 noundef 1, i64 noundef 40)
  store ptr %10, ptr %9, align 8, !tbaa !109
  %11 = load i32, ptr %5, align 4, !tbaa !4
  %12 = load ptr, ptr %9, align 8, !tbaa !109
  %13 = getelementptr inbounds nuw %struct.merge_list, ptr %12, i32 0, i32 2
  %14 = trunc i32 %11 to i8
  %15 = load i8, ptr %13, align 8
  %16 = and i8 %14, 3
  %17 = and i8 %15, -4
  %18 = or i8 %17, %16
  store i8 %18, ptr %13, align 8
  %19 = load ptr, ptr %8, align 8, !tbaa !11
  %20 = load ptr, ptr %9, align 8, !tbaa !109
  %21 = getelementptr inbounds nuw %struct.merge_list, ptr %20, i32 0, i32 4
  store ptr %19, ptr %21, align 8, !tbaa !126
  %22 = load i32, ptr %6, align 4, !tbaa !4
  %23 = load ptr, ptr %9, align 8, !tbaa !109
  %24 = getelementptr inbounds nuw %struct.merge_list, ptr %23, i32 0, i32 3
  store i32 %22, ptr %24, align 4, !tbaa !127
  %25 = load ptr, ptr @the_repository, align 8, !tbaa !13
  %26 = load ptr, ptr %7, align 8, !tbaa !121
  %27 = call ptr @lookup_blob(ptr noundef %25, ptr noundef %26)
  %28 = load ptr, ptr %9, align 8, !tbaa !109
  %29 = getelementptr inbounds nuw %struct.merge_list, ptr %28, i32 0, i32 5
  store ptr %27, ptr %29, align 8, !tbaa !128
  %30 = load ptr, ptr %9, align 8, !tbaa !109
  call void @llvm.lifetime.end.p0(i64 8, ptr %9) #10
  ret ptr %30
}

; Function Attrs: nounwind uwtable
define internal ptr @traverse_path(ptr noundef %0, ptr noundef %1) #0 {
  %3 = alloca ptr, align 8
  %4 = alloca ptr, align 8
  %5 = alloca %struct.strbuf, align 8
  store ptr %0, ptr %3, align 8, !tbaa !117
  store ptr %1, ptr %4, align 8, !tbaa !115
  call void @llvm.lifetime.start.p0(i64 24, ptr %5) #10
  call void @llvm.memcpy.p0.p0.i64(ptr align 8 %5, ptr align 8 @__const.traverse_path.buf, i64 24, i1 false)
  %6 = load ptr, ptr %3, align 8, !tbaa !117
  %7 = load ptr, ptr %4, align 8, !tbaa !115
  %8 = getelementptr inbounds nuw %struct.name_entry, ptr %7, i32 0, i32 1
  %9 = load ptr, ptr %8, align 8, !tbaa !124
  %10 = load ptr, ptr %4, align 8, !tbaa !115
  %11 = getelementptr inbounds nuw %struct.name_entry, ptr %10, i32 0, i32 2
  %12 = load i32, ptr %11, align 8, !tbaa !125
  %13 = sext i32 %12 to i64
  call void @strbuf_make_traverse_path(ptr noundef %5, ptr noundef %6, ptr noundef %9, i64 noundef %13)
  %14 = call ptr @strbuf_detach(ptr noundef %5, ptr noundef null)
  call void @llvm.lifetime.end.p0(i64 24, ptr %5) #10
  ret ptr %14
}

; Function Attrs: nounwind uwtable
define internal void @resolve(ptr noundef %0, ptr noundef %1, ptr noundef %2) #0 {
  %4 = alloca ptr, align 8
  %5 = alloca ptr, align 8
  %6 = alloca ptr, align 8
  %7 = alloca ptr, align 8
  %8 = alloca ptr, align 8
  %9 = alloca ptr, align 8
  %10 = alloca i32, align 4
  store ptr %0, ptr %4, align 8, !tbaa !117
  store ptr %1, ptr %5, align 8, !tbaa !115
  store ptr %2, ptr %6, align 8, !tbaa !115
  call void @llvm.lifetime.start.p0(i64 8, ptr %7) #10
  call void @llvm.lifetime.start.p0(i64 8, ptr %8) #10
  call void @llvm.lifetime.start.p0(i64 8, ptr %9) #10
  %11 = load ptr, ptr %5, align 8, !tbaa !115
  %12 = icmp ne ptr %11, null
  br i1 %12, label %14, label %13

13:                                               ; preds = %3
  store i32 1, ptr %10, align 4
  br label %36

14:                                               ; preds = %3
  %15 = load ptr, ptr %4, align 8, !tbaa !117
  %16 = load ptr, ptr %6, align 8, !tbaa !115
  %17 = call ptr @traverse_path(ptr noundef %15, ptr noundef %16)
  store ptr %17, ptr %9, align 8, !tbaa !11
  %18 = load ptr, ptr %5, align 8, !tbaa !115
  %19 = getelementptr inbounds nuw %struct.name_entry, ptr %18, i32 0, i32 3
  %20 = load i32, ptr %19, align 4, !tbaa !118
  %21 = load ptr, ptr %5, align 8, !tbaa !115
  %22 = getelementptr inbounds nuw %struct.name_entry, ptr %21, i32 0, i32 0
  %23 = load ptr, ptr %9, align 8, !tbaa !11
  %24 = call ptr @create_entry(i32 noundef 2, i32 noundef %20, ptr noundef %22, ptr noundef %23)
  store ptr %24, ptr %7, align 8, !tbaa !109
  %25 = load ptr, ptr %6, align 8, !tbaa !115
  %26 = getelementptr inbounds nuw %struct.name_entry, ptr %25, i32 0, i32 3
  %27 = load i32, ptr %26, align 4, !tbaa !118
  %28 = load ptr, ptr %6, align 8, !tbaa !115
  %29 = getelementptr inbounds nuw %struct.name_entry, ptr %28, i32 0, i32 0
  %30 = load ptr, ptr %9, align 8, !tbaa !11
  %31 = call ptr @create_entry(i32 noundef 0, i32 noundef %27, ptr noundef %29, ptr noundef %30)
  store ptr %31, ptr %8, align 8, !tbaa !109
  %32 = load ptr, ptr %7, align 8, !tbaa !109
  %33 = load ptr, ptr %8, align 8, !tbaa !109
  %34 = getelementptr inbounds nuw %struct.merge_list, ptr %33, i32 0, i32 1
  store ptr %32, ptr %34, align 8, !tbaa !120
  %35 = load ptr, ptr %8, align 8, !tbaa !109
  call void @add_merge_entry(ptr noundef %35)
  store i32 0, ptr %10, align 4
  br label %36

36:                                               ; preds = %14, %13
  call void @llvm.lifetime.end.p0(i64 8, ptr %9) #10
  call void @llvm.lifetime.end.p0(i64 8, ptr %8) #10
  call void @llvm.lifetime.end.p0(i64 8, ptr %7) #10
  %37 = load i32, ptr %10, align 4
  switch i32 %37, label %39 [
    i32 0, label %38
    i32 1, label %38
  ]

38:                                               ; preds = %36, %36
  ret void

39:                                               ; preds = %36
  unreachable
}