; Function Attrs: nounwind uwtable
define internal fastcc void @resolve(ptr noundef %0, ptr noundef %1, ptr noundef %2) unnamed_addr #0 {
  %4 = alloca %struct.strbuf, align 8
  %.not = icmp eq ptr %1, null
  br i1 %.not, label %35, label %5

5:                                                ; preds = %3
  %6 = getelementptr i8, ptr %2, i64 40
  %.val = load ptr, ptr %6, align 8, !tbaa !111
  %7 = getelementptr i8, ptr %2, i64 48
  %.val12 = load i32, ptr %7, align 8, !tbaa !112
  call void @llvm.lifetime.start.p0(i64 24, ptr nonnull %4) #15
  call void @llvm.memcpy.p0.p0.i64(ptr noundef nonnull align 8 dereferenceable(24) %4, ptr noundef nonnull align 8 dereferenceable(24) @__const.traverse_path.buf, i64 24, i1 false)
  %8 = sext i32 %.val12 to i64
  call void @strbuf_make_traverse_path(ptr noundef nonnull %4, ptr noundef %0, ptr noundef %.val, i64 noundef %8) #15
  %9 = call ptr @strbuf_detach(ptr noundef nonnull %4, ptr noundef null) #15
  call void @llvm.lifetime.end.p0(i64 24, ptr nonnull %4) #15
  %10 = getelementptr inbounds nuw i8, ptr %1, i64 52
  %11 = load i32, ptr %10, align 4, !tbaa !109
  %12 = call ptr @xcalloc(i64 noundef 1, i64 noundef 40) #15
  %13 = getelementptr inbounds nuw i8, ptr %12, i64 16
  %14 = load i8, ptr %13, align 8
  %15 = and i8 %14, -4
  %16 = or disjoint i8 %15, 2
  store i8 %16, ptr %13, align 8
  %17 = getelementptr inbounds nuw i8, ptr %12, i64 24
  store ptr %9, ptr %17, align 8, !tbaa !72
  %18 = getelementptr inbounds nuw i8, ptr %12, i64 20
  store i32 %11, ptr %18, align 4, !tbaa !70
  %19 = load ptr, ptr @the_repository, align 8, !tbaa !21
  %20 = call ptr @lookup_blob(ptr noundef %19, ptr noundef nonnull %1) #15
  %21 = getelementptr inbounds nuw i8, ptr %12, i64 32
  store ptr %20, ptr %21, align 8, !tbaa !71
  %22 = getelementptr inbounds nuw i8, ptr %2, i64 52
  %23 = load i32, ptr %22, align 4, !tbaa !109
  %24 = call ptr @xcalloc(i64 noundef 1, i64 noundef 40) #15
  %25 = getelementptr inbounds nuw i8, ptr %24, i64 16
  %26 = load i8, ptr %25, align 8
  %27 = and i8 %26, -4
  store i8 %27, ptr %25, align 8
  %28 = getelementptr inbounds nuw i8, ptr %24, i64 24
  store ptr %9, ptr %28, align 8, !tbaa !72
  %29 = getelementptr inbounds nuw i8, ptr %24, i64 20
  store i32 %23, ptr %29, align 4, !tbaa !70
  %30 = load ptr, ptr @the_repository, align 8, !tbaa !21
  %31 = call ptr @lookup_blob(ptr noundef %30, ptr noundef %2) #15
  %32 = getelementptr inbounds nuw i8, ptr %24, i64 32
  store ptr %31, ptr %32, align 8, !tbaa !71
  %33 = getelementptr inbounds nuw i8, ptr %24, i64 8
  store ptr %12, ptr %33, align 8, !tbaa !67
  %34 = load ptr, ptr @merge_result_end, align 8, !tbaa !113
  store ptr %24, ptr %34, align 8, !tbaa !65
  store ptr %24, ptr @merge_result_end, align 8, !tbaa !113
  br label %35

35:                                               ; preds = %3, %5
  ret void
}